target datalayout = "e-m:e-p270:32:32-p271:32:32-p272:64:64-i64:64-i128:128-f80:128-n8:16:32:64-S128"
target triple = "x86_64-pc-linux-gnu"

%struct.RewriteStateData = type { ptr, ptr, ptr, ptr, i32, i8, i32, i32, i32, i32, ptr, i64, ptr, ptr, ptr, i32 }
%struct.RelationData = type { %struct.RelFileLocator, ptr, i32, i32, i8, i8, i8, i8, i8, i32, i32, i32, i32, ptr, ptr, i32, %struct.LockInfoData, ptr, ptr, ptr, ptr, ptr, i8, ptr, ptr, ptr, ptr, ptr, ptr, i32, ptr, i8, ptr, ptr, i32, i8, i32, ptr, i8, ptr, ptr, ptr, ptr, ptr, ptr, ptr, i32, ptr, ptr, ptr, ptr, ptr, ptr, ptr, ptr, ptr, ptr, ptr, ptr, ptr, ptr, ptr, ptr, ptr, ptr, ptr, i32, i8, ptr }
%struct.RelFileLocator = type { i32, i32, i32 }
%struct.LockInfoData = type { %struct.LockRelId }
%struct.LockRelId = type { i32, i32 }
%struct.FormData_pg_class = type { i32, %struct.nameData, i32, i32, i32, i32, i32, i32, i32, i32, float, i32, i32, i8, i8, i8, i8, i16, i16, i8, i8, i8, i8, i8, i8, i8, i8, i32, i32, i32 }
%struct.nameData = type { [64 x i8] }
%struct.ItemPointerData = type { %struct.BlockIdData, i16 }
%struct.BlockIdData = type { i16, i16 }
%struct.RewriteMappingFile = type { i32, i32, i64, %struct.dclist_head, [1024 x i8] }
%struct.dclist_head = type { %struct.dlist_head, i32 }
%struct.dlist_head = type { %struct.dlist_node }
%struct.dlist_node = type { ptr, ptr }
%struct.LogicalRewriteMappingData = type { %struct.RelFileLocator, %struct.RelFileLocator, %struct.ItemPointerData, %struct.ItemPointerData }
%struct.RewriteMappingDataEntry = type { %struct.LogicalRewriteMappingData, %struct.dlist_node }

@.str.3 = private unnamed_addr constant [25 x i8] c"%s/map-%x-%x-%X_%X-%x-%x\00", align 1
@.str.4 = private unnamed_addr constant [20 x i8] c"pg_logical/mappings\00", align 1
@.str.5 = private unnamed_addr constant [31 x i8] c"could not create file \22%s\22: %m\00", align 1
@.str.6 = private unnamed_addr constant [14 x i8] c"rewriteheap.c\00", align 1
@MyDatabaseId = external global i32, align 4
@__func__.logical_rewrite_log_mapping = private unnamed_addr constant [28 x i8] c"logical_rewrite_log_mapping\00", align 1

; Function Attrs: inlinehint nounwind uwtable
define internal void @dlist_push_tail(ptr noundef %0, ptr noundef %1) #3 {
  %3 = alloca ptr, align 8
  %4 = alloca ptr, align 8
  store ptr %0, ptr %3, align 8
  store ptr %1, ptr %4, align 8
  %5 = load ptr, ptr %3, align 8
  %6 = getelementptr inbounds nuw %struct.dlist_head, ptr %5, i32 0, i32 0
  %7 = getelementptr inbounds nuw %struct.dlist_node, ptr %6, i32 0, i32 1
  %8 = load ptr, ptr %7, align 8
  %9 = icmp eq ptr %8, null
  br i1 %9, label %10, label %12

10:                                               ; preds = %2
  %11 = load ptr, ptr %3, align 8
  call void @dlist_init(ptr noundef %11)
  br label %12

12:                                               ; preds = %10, %2
  %13 = load ptr, ptr %3, align 8
  %14 = getelementptr inbounds nuw %struct.dlist_head, ptr %13, i32 0, i32 0
  %15 = load ptr, ptr %4, align 8
  %16 = getelementptr inbounds nuw %struct.dlist_node, ptr %15, i32 0, i32 1
  store ptr %14, ptr %16, align 8
  %17 = load ptr, ptr %3, align 8
  %18 = getelementptr inbounds nuw %struct.dlist_head, ptr %17, i32 0, i32 0
  %19 = getelementptr inbounds nuw %struct.dlist_node, ptr %18, i32 0, i32 0
  %20 = load ptr, ptr %19, align 8
  %21 = load ptr, ptr %4, align 8
  %22 = getelementptr inbounds nuw %struct.dlist_node, ptr %21, i32 0, i32 0
  store ptr %20, ptr %22, align 8
  %23 = load ptr, ptr %4, align 8
  %24 = load ptr, ptr %4, align 8
  %25 = getelementptr inbounds nuw %struct.dlist_node, ptr %24, i32 0, i32 0
  %26 = load ptr, ptr %25, align 8
  %27 = getelementptr inbounds nuw %struct.dlist_node, ptr %26, i32 0, i32 1
  store ptr %23, ptr %27, align 8
  %28 = load ptr, ptr %4, align 8
  %29 = load ptr, ptr %3, align 8
  %30 = getelementptr inbounds nuw %struct.dlist_head, ptr %29, i32 0, i32 0
  %31 = getelementptr inbounds nuw %struct.dlist_node, ptr %30, i32 0, i32 0
  store ptr %28, ptr %31, align 8
  ret void
}

; Function Attrs: inlinehint nounwind uwtable
define internal void @dlist_init(ptr noundef %0) #3 {
  %2 = alloca ptr, align 8
  store ptr %0, ptr %2, align 8
  %3 = load ptr, ptr %2, align 8
  %4 = getelementptr inbounds nuw %struct.dlist_head, ptr %3, i32 0, i32 0
  %5 = load ptr, ptr %2, align 8
  %6 = getelementptr inbounds nuw %struct.dlist_head, ptr %5, i32 0, i32 0
  %7 = getelementptr inbounds nuw %struct.dlist_node, ptr %6, i32 0, i32 0
  store ptr %4, ptr %7, align 8
  %8 = load ptr, ptr %2, align 8
  %9 = getelementptr inbounds nuw %struct.dlist_head, ptr %8, i32 0, i32 0
  %10 = getelementptr inbounds nuw %struct.dlist_node, ptr %9, i32 0, i32 1
  store ptr %4, ptr %10, align 8
  ret void
}

; Function Attrs: inlinehint nounwind uwtable
define internal void @dclist_push_tail(ptr noundef %0, ptr noundef %1) #3 {
  %3 = alloca ptr, align 8
  %4 = alloca ptr, align 8
  store ptr %0, ptr %3, align 8
  store ptr %1, ptr %4, align 8
  %5 = load ptr, ptr %3, align 8
  %6 = getelementptr inbounds nuw %struct.dclist_head, ptr %5, i32 0, i32 0
  %7 = getelementptr inbounds nuw %struct.dlist_head, ptr %6, i32 0, i32 0
  %8 = getelementptr inbounds nuw %struct.dlist_node, ptr %7, i32 0, i32 1
  %9 = load ptr, ptr %8, align 8
  %10 = icmp eq ptr %9, null
  br i1 %10, label %11, label %13

11:                                               ; preds = %2
  %12 = load ptr, ptr %3, align 8
  call void @dclist_init(ptr noundef %12)
  br label %13

13:                                               ; preds = %11, %2
  %14 = load ptr, ptr %3, align 8
  %15 = getelementptr inbounds nuw %struct.dclist_head, ptr %14, i32 0, i32 0
  %16 = load ptr, ptr %4, align 8
  call void @dlist_push_tail(ptr noundef %15, ptr noundef %16)
  %17 = load ptr, ptr %3, align 8
  %18 = getelementptr inbounds nuw %struct.dclist_head, ptr %17, i32 0, i32 1
  %19 = load i32, ptr %18, align 8
  %20 = add i32 %19, 1
  store i32 %20, ptr %18, align 8
  ret void
}

; Function Attrs: inlinehint nounwind uwtable
define internal void @dclist_init(ptr noundef %0) #3 {
  %2 = alloca ptr, align 8
  store ptr %0, ptr %2, align 8
  %3 = load ptr, ptr %2, align 8
  %4 = getelementptr inbounds nuw %struct.dclist_head, ptr %3, i32 0, i32 0
  call void @dlist_init(ptr noundef %4)
  %5 = load ptr, ptr %2, align 8
  %6 = getelementptr inbounds nuw %struct.dclist_head, ptr %5, i32 0, i32 1
  store i32 0, ptr %6, align 8
  ret void
}

; Function Attrs: nounwind uwtable
define internal void @logical_rewrite_log_mapping(ptr noundef %0, i32 noundef %1, ptr noundef %2) #0 {
  %4 = alloca ptr, align 8
  %5 = alloca i32, align 4
  %6 = alloca ptr, align 8
  %7 = alloca ptr, align 8
  %8 = alloca ptr, align 8
  %9 = alloca i32, align 4
  %10 = alloca i8, align 1
  %11 = alloca [1024 x i8], align 16
  %12 = alloca i32, align 4
  %13 = alloca i32, align 4
  store ptr %0, ptr %4, align 8
  store i32 %1, ptr %5, align 4
  store ptr %2, ptr %6, align 8
  call void @llvm.lifetime.start.p0(i64 8, ptr %7) #10
  call void @llvm.lifetime.start.p0(i64 8, ptr %8) #10
  call void @llvm.lifetime.start.p0(i64 4, ptr %9) #10
  call void @llvm.lifetime.start.p0(i64 1, ptr %10) #10
  %14 = load ptr, ptr %4, align 8
  %15 = getelementptr inbounds nuw %struct.RewriteStateData, ptr %14, i32 0, i32 0
  %16 = load ptr, ptr %15, align 8
  %17 = getelementptr inbounds nuw %struct.RelationData, ptr %16, i32 0, i32 15
  %18 = load i32, ptr %17, align 8
  store i32 %18, ptr %9, align 4
  %19 = load ptr, ptr %4, align 8
  %20 = getelementptr inbounds nuw %struct.RewriteStateData, ptr %19, i32 0, i32 14
  %21 = load ptr, ptr %20, align 8
  %22 = call ptr @hash_search(ptr noundef %21, ptr noundef %5, i32 noundef 1, ptr noundef %10)
  store ptr %22, ptr %7, align 8
  %23 = load i8, ptr %10, align 1, !range !4, !noundef !5
  %24 = trunc i8 %23 to i1
  br i1 %24, label %86, label %25

25:                                               ; preds = %3
  call void @llvm.lifetime.start.p0(i64 1024, ptr %11) #10
  call void @llvm.lifetime.start.p0(i64 4, ptr %12) #10
  %26 = load ptr, ptr %4, align 8
  %27 = getelementptr inbounds nuw %struct.RewriteStateData, ptr %26, i32 0, i32 0
  %28 = load ptr, ptr %27, align 8
  %29 = getelementptr inbounds nuw %struct.RelationData, ptr %28, i32 0, i32 13
  %30 = load ptr, ptr %29, align 8
  %31 = getelementptr inbounds nuw %struct.FormData_pg_class, ptr %30, i32 0, i32 14
  %32 = load i8, ptr %31, align 1, !range !4, !noundef !5
  %33 = trunc i8 %32 to i1
  br i1 %33, label %34, label %35

34:                                               ; preds = %25
  store i32 0, ptr %12, align 4
  br label %37

35:                                               ; preds = %25
  %36 = load i32, ptr @MyDatabaseId, align 4
  store i32 %36, ptr %12, align 4
  br label %37

37:                                               ; preds = %35, %34
  %38 = getelementptr inbounds [1024 x i8], ptr %11, i64 0, i64 0
  %39 = load i32, ptr %12, align 4
  %40 = load i32, ptr %9, align 4
  br label %41

41:                                               ; preds = %37
  br label %42

42:                                               ; preds = %41
  br label %43

43:                                               ; preds = %42
  store i32 1, ptr %13, align 4
  %44 = load ptr, ptr %4, align 8
  %45 = getelementptr inbounds nuw %struct.RewriteStateData, ptr %44, i32 0, i32 11
  %46 = load i64, ptr %45, align 8
  %47 = lshr i64 %46, 32
  %48 = trunc i64 %47 to i32
  %49 = load ptr, ptr %4, align 8
  %50 = getelementptr inbounds nuw %struct.RewriteStateData, ptr %49, i32 0, i32 11
  %51 = load i64, ptr %50, align 8
  %52 = trunc i64 %51 to i32
  %53 = load i32, ptr %5, align 4
  %54 = call i32 @GetCurrentTransactionId()
  %55 = call i32 (ptr, i64, ptr, ...) @pg_snprintf(ptr noundef %38, i64 noundef 1024, ptr noundef @.str.3, ptr noundef @.str.4, i32 noundef %39, i32 noundef %40, i32 noundef %48, i32 noundef %52, i32 noundef %53, i32 noundef %54)
  %56 = load ptr, ptr %7, align 8
  %57 = getelementptr inbounds nuw %struct.RewriteMappingFile, ptr %56, i32 0, i32 3
  call void @dclist_init(ptr noundef %57)
  %58 = load ptr, ptr %7, align 8
  %59 = getelementptr inbounds nuw %struct.RewriteMappingFile, ptr %58, i32 0, i32 2
  store i64 0, ptr %59, align 8
  %60 = load ptr, ptr %7, align 8
  %61 = getelementptr inbounds nuw %struct.RewriteMappingFile, ptr %60, i32 0, i32 4
  %62 = getelementptr inbounds [1024 x i8], ptr %61, i64 0, i64 0
  %63 = getelementptr inbounds [1024 x i8], ptr %11, i64 0, i64 0
  call void @llvm.memcpy.p0.p0.i64(ptr align 8 %62, ptr align 16 %63, i64 1024, i1 false)
  %64 = getelementptr inbounds [1024 x i8], ptr %11, i64 0, i64 0
  %65 = call i32 @PathNameOpenFile(ptr noundef %64, i32 noundef 193)
  %66 = load ptr, ptr %7, align 8
  %67 = getelementptr inbounds nuw %struct.RewriteMappingFile, ptr %66, i32 0, i32 1
  store i32 %65, ptr %67, align 4
  %68 = load ptr, ptr %7, align 8
  %69 = getelementptr inbounds nuw %struct.RewriteMappingFile, ptr %68, i32 0, i32 1
  %70 = load i32, ptr %69, align 4
  %71 = icmp slt i32 %70, 0
  br i1 %71, label %72, label %85

72:                                               ; preds = %43
  br label %73

73:                                               ; preds = %72
  br i1 true, label %74, label %76

74:                                               ; preds = %73
  %75 = call zeroext i1 @errstart_cold(i32 noundef 21, ptr noundef null) #11
  br i1 %75, label %78, label %82

76:                                               ; preds = %73
  %77 = call zeroext i1 @errstart(i32 noundef 21, ptr noundef null)
  br i1 %77, label %78, label %82

78:                                               ; preds = %76, %74
  %79 = call i32 @errcode_for_file_access()
  %80 = getelementptr inbounds [1024 x i8], ptr %11, i64 0, i64 0
  %81 = call i32 (ptr, ...) @errmsg(ptr noundef @.str.5, ptr noundef %80)
  call void @errfinish(ptr noundef @.str.6, i32 noundef 977, ptr noundef @__func__.logical_rewrite_log_mapping)
  br label %82

82:                                               ; preds = %78, %76, %74
  unreachable

83:                                               ; No predecessors!
  br label %84

84:                                               ; preds = %83
  br label %85

85:                                               ; preds = %84, %43
  call void @llvm.lifetime.end.p0(i64 4, ptr %12) #10
  call void @llvm.lifetime.end.p0(i64 1024, ptr %11) #10
  br label %86

86:                                               ; preds = %85, %3
  %87 = load ptr, ptr %4, align 8
  %88 = getelementptr inbounds nuw %struct.RewriteStateData, ptr %87, i32 0, i32 10
  %89 = load ptr, ptr %88, align 8
  %90 = call ptr @MemoryContextAlloc(ptr noundef %89, i64 noundef 56)
  store ptr %90, ptr %8, align 8
  %91 = load ptr, ptr %8, align 8
  %92 = getelementptr inbounds nuw %struct.RewriteMappingDataEntry, ptr %91, i32 0, i32 0
  %93 = load ptr, ptr %6, align 8
  call void @llvm.memcpy.p0.p0.i64(ptr align 8 %92, ptr align 4 %93, i64 36, i1 false)
  %94 = load ptr, ptr %7, align 8
  %95 = getelementptr inbounds nuw %struct.RewriteMappingFile, ptr %94, i32 0, i32 3
  %96 = load ptr, ptr %8, align 8
  %97 = getelementptr inbounds nuw %struct.RewriteMappingDataEntry, ptr %96, i32 0, i32 1
  call void @dclist_push_tail(ptr noundef %95, ptr noundef %97)
  %98 = load ptr, ptr %4, align 8
  %99 = getelementptr inbounds nuw %struct.RewriteStateData, ptr %98, i32 0, i32 15
  %100 = load i32, ptr %99, align 8
  %101 = add i32 %100, 1
  store i32 %101, ptr %99, align 8
  %102 = load ptr, ptr %4, align 8
  %103 = getelementptr inbounds nuw %struct.RewriteStateData, ptr %102, i32 0, i32 15
  %104 = load i32, ptr %103, align 8
  %105 = icmp uge i32 %104, 1000
  br i1 %105, label %106, label %108

106:                                              ; preds = %86
  %107 = load ptr, ptr %4, align 8
  call void @logical_heap_rewrite_flush_mappings(ptr noundef %107)
  br label %108

108:                                              ; preds = %106, %86
  call void @llvm.lifetime.end.p0(i64 1, ptr %10) #10
  call void @llvm.lifetime.end.p0(i64 4, ptr %9) #10
  call void @llvm.lifetime.end.p0(i64 8, ptr %8) #10
  call void @llvm.lifetime.end.p0(i64 8, ptr %7) #10
  ret void
}