; Function Attrs: nounwind uwtable
define internal fastcc void @logical_rewrite_log_mapping(ptr noundef captures(none) %0, i32 noundef %1, ptr noundef nonnull readonly captures(none) %2) unnamed_addr #0 {
  %4 = alloca i32, align 4
  %5 = alloca i8, align 1
  %6 = alloca [1024 x i8], align 16
  store i32 %1, ptr %4, align 4
  call void @llvm.lifetime.start.p0(i64 1, ptr nonnull %5) #13
  %7 = load ptr, ptr %0, align 8
  %8 = getelementptr inbounds nuw i8, ptr %7, i64 72
  %9 = load i32, ptr %8, align 8
  %10 = getelementptr inbounds nuw i8, ptr %0, i64 88
  %11 = load ptr, ptr %10, align 8
  %12 = call ptr @hash_search(ptr noundef %11, ptr noundef nonnull %4, i32 noundef 1, ptr noundef nonnull %5) #13
  %13 = load i8, ptr %5, align 1, !range !4, !noundef !5
  %14 = trunc nuw i8 %13 to i1
  br i1 %14, label %44, label %15

15:                                               ; preds = %3
  call void @llvm.lifetime.start.p0(i64 1024, ptr nonnull %6) #13
  %16 = load ptr, ptr %0, align 8
  %17 = getelementptr inbounds nuw i8, ptr %16, i64 56
  %18 = load ptr, ptr %17, align 8
  %19 = getelementptr inbounds nuw i8, ptr %18, i64 113
  %20 = load i8, ptr %19, align 1, !range !4, !noundef !5
  %21 = trunc nuw i8 %20 to i1
  %22 = load i32, ptr @MyDatabaseId, align 4
  %.0 = select i1 %21, i32 0, i32 %22
  %23 = getelementptr inbounds nuw i8, ptr %0, i64 64
  %24 = load i64, ptr %23, align 8
  %25 = lshr i64 %24, 32
  %26 = trunc nuw i64 %25 to i32
  %27 = trunc i64 %24 to i32
  %28 = load i32, ptr %4, align 4
  %29 = call i32 @GetCurrentTransactionId() #13
  %30 = call i32 (ptr, i64, ptr, ...) @pg_snprintf(ptr noundef nonnull %6, i64 noundef 1024, ptr noundef nonnull @.str.3, ptr noundef nonnull @.str.4, i32 noundef %.0, i32 noundef %9, i32 noundef %26, i32 noundef %27, i32 noundef %28, i32 noundef %29) #13
  %31 = getelementptr inbounds nuw i8, ptr %12, i64 16
  store ptr %31, ptr %31, align 8
  %32 = getelementptr inbounds nuw i8, ptr %12, i64 24
  store ptr %31, ptr %32, align 8
  %33 = getelementptr inbounds nuw i8, ptr %12, i64 32
  store i32 0, ptr %33, align 8
  %34 = getelementptr inbounds nuw i8, ptr %12, i64 8
  store i64 0, ptr %34, align 8
  %35 = getelementptr inbounds nuw i8, ptr %12, i64 40
  call void @llvm.memcpy.p0.p0.i64(ptr noundef nonnull align 8 dereferenceable(1024) %35, ptr noundef nonnull align 16 dereferenceable(1024) %6, i64 1024, i1 false)
  %36 = call i32 @PathNameOpenFile(ptr noundef nonnull %6, i32 noundef 193) #13
  %37 = getelementptr inbounds nuw i8, ptr %12, i64 4
  store i32 %36, ptr %37, align 4
  %38 = icmp slt i32 %36, 0
  br i1 %38, label %39, label %43

39:                                               ; preds = %15
  %40 = call zeroext i1 @errstart_cold(i32 noundef 21, ptr noundef null) #14
  call void @llvm.assume(i1 %40)
  %41 = call i32 @errcode_for_file_access() #13
  %42 = call i32 (ptr, ...) @errmsg(ptr noundef nonnull @.str.5, ptr noundef nonnull %6) #13
  call void @errfinish(ptr noundef nonnull @.str.6, i32 noundef 977, ptr noundef nonnull @__func__.logical_rewrite_log_mapping) #13
  unreachable

43:                                               ; preds = %15
  call void @llvm.lifetime.end.p0(i64 1024, ptr nonnull %6) #13
  br label %44

44:                                               ; preds = %43, %3
  %45 = getelementptr inbounds nuw i8, ptr %0, i64 56
  %46 = load ptr, ptr %45, align 8
  %47 = call ptr @MemoryContextAlloc(ptr noundef %46, i64 noundef 56) #13
  call void @llvm.memcpy.p0.p0.i64(ptr noundef nonnull align 8 dereferenceable(36) %47, ptr noundef nonnull align 4 dereferenceable(36) %2, i64 36, i1 false)
  %48 = getelementptr inbounds nuw i8, ptr %12, i64 16
  %49 = getelementptr inbounds nuw i8, ptr %47, i64 40
  %50 = getelementptr inbounds nuw i8, ptr %12, i64 24
  %51 = load ptr, ptr %50, align 8
  %52 = icmp eq ptr %51, null
  br i1 %52, label %53, label %dclist_push_tail.exit

53:                                               ; preds = %44
  store ptr %48, ptr %48, align 8
  store ptr %48, ptr %50, align 8
  %54 = getelementptr inbounds nuw i8, ptr %12, i64 32
  store i32 0, ptr %54, align 8
  br label %dclist_push_tail.exit

dclist_push_tail.exit:                            ; preds = %44, %53
  %55 = getelementptr inbounds nuw i8, ptr %47, i64 48
  store ptr %48, ptr %55, align 8
  %56 = load ptr, ptr %48, align 8
  store ptr %56, ptr %49, align 8
  %57 = getelementptr inbounds nuw i8, ptr %56, i64 8
  store ptr %49, ptr %57, align 8
  store ptr %49, ptr %48, align 8
  %58 = getelementptr inbounds nuw i8, ptr %12, i64 32
  %59 = load i32, ptr %58, align 8
  %60 = add i32 %59, 1
  store i32 %60, ptr %58, align 8
  %61 = getelementptr inbounds nuw i8, ptr %0, i64 96
  %62 = load i32, ptr %61, align 8
  %63 = add i32 %62, 1
  store i32 %63, ptr %61, align 8
  %64 = icmp ugt i32 %63, 999
  br i1 %64, label %65, label %66

65:                                               ; preds = %dclist_push_tail.exit
  call fastcc void @logical_heap_rewrite_flush_mappings(ptr noundef nonnull %0)
  br label %66

66:                                               ; preds = %65, %dclist_push_tail.exit
  call void @llvm.lifetime.end.p0(i64 1, ptr nonnull %5) #13
  ret void
}